Certificate:
    Data:
        Version: 3 (0x2)
        Serial Number: 137858455809 (0x2019011901)
    Signature Algorithm: sha256WithRSAEncryption
        Issuer: C=JP, ST=Ehime, O=Takashi SASAKI Things, O=SSH keys, CN=takashi316@gmail.com
        Validity
            Not Before: Jan 19 12:55:44 2018 GMT
            Not After : Dec 26 12:55:44 2117 GMT
        Subject: C=JP, ST=Ehime, O=Takashi SASAKI Things, O=SSH keys, OU=sasaki64, OU=Ubuntu on Windows, CN=sasaki/emailAddress=takashi316@gmail.com
        Subject Public Key Info:
            Public Key Algorithm: rsaEncryption
                Public-Key: (2048 bit)
                Modulus:
                    00:d2:c9:7b:a9:dd:9e:e5:84:c8:71:60:cb:b3:c7:
                    04:ba:8f:70:fc:f9:bd:50:2e:f8:ca:dc:58:94:22:
                    47:29:32:6f:0d:0c:fb:15:17:d9:b8:37:85:43:fd:
                    19:16:eb:df:9d:b3:fe:14:f0:ee:75:67:ec:f3:b8:
                    c8:bc:21:58:ab:fa:22:c6:06:32:3e:47:5e:40:4a:
                    66:af:26:47:63:5e:dc:b7:0f:e7:a6:7c:79:ec:9c:
                    7c:f7:10:0a:9a:6b:ae:8b:11:dd:7a:a8:5c:a4:3d:
                    13:87:9d:f6:f4:1b:6b:e6:b6:22:61:5e:6d:0d:7f:
                    47:06:35:88:cb:80:b3:ad:9e:15:83:8e:25:de:62:
                    0c:6c:25:aa:f7:19:6a:dc:50:24:32:50:96:5f:65:
                    1b:64:44:19:f9:f3:3f:56:b1:99:66:b5:88:e8:8d:
                    40:86:66:13:08:17:d3:56:f2:7a:cb:59:2f:b6:88:
                    fa:df:b7:f1:04:6f:37:89:17:f5:c3:48:3b:10:d6:
                    d4:4a:4a:37:e2:e4:7c:07:ed:c3:09:b5:39:aa:80:
                    47:2a:31:f5:e0:e4:6d:e9:62:5e:a8:90:7d:2b:3b:
                    09:cf:d9:e1:f2:69:b2:c6:b3:23:dd:00:82:a4:f1:
                    23:12:13:bd:10:53:6e:02:fa:46:ba:75:70:72:4d:
                    93:91
                Exponent: 65537 (0x10001)
        X509v3 extensions:
            X509v3 Basic Constraints: 
                CA:FALSE
            Netscape Comment: 
                OpenSSL Generated Certificate
            X509v3 Subject Key Identifier: 
                69:76:40:C3:3B:29:69:0D:B8:2C:11:31:B5:18:06:AC:3C:FA:6B:D4
            X509v3 Authority Key Identifier: 
                keyid:B9:0E:51:8F:E1:9B:28:EE:B1:8F:76:AE:08:80:98:B8:57:93:E3:D0

    Signature Algorithm: sha256WithRSAEncryption
         61:4f:1d:86:18:91:d0:34:b0:80:c0:f1:96:59:5a:12:41:33:
         56:5f:28:ff:af:e1:b7:b9:61:6e:a3:fd:c7:20:7c:98:9c:d3:
         4d:aa:65:66:dd:64:b2:66:44:f9:e5:f5:02:96:31:a3:fe:5a:
         20:d9:e4:9c:95:bf:99:21:cc:45:31:d6:64:28:53:0d:cb:45:
         41:7f:13:90:2b:de:f6:19:22:a9:36:39:22:2c:4f:c7:91:29:
         80:33:e6:30:4d:00:59:c9:20:48:57:bc:6c:ab:be:54:a9:8e:
         72:2e:bb:a1:b3:83:4f:1a:75:51:bf:f1:38:e7:d7:98:30:cf:
         18:5e:13:8b:02:b0:e4:b3:f1:49:d3:9f:59:bc:31:47:bf:cf:
         aa:5f:41:98:58:e1:de:a9:51:34:7b:4a:90:4a:d2:eb:07:a7:
         7b:1e:5b:25:ab:ef:3d:dd:02:51:3e:9f:3a:76:29:9a:eb:f9:
         b8:19:a2:5a:84:e4:c5:58:99:c5:d9:0b:59:43:a1:bc:81:c1:
         4a:11:7e:33:7d:63:b4:8c:14:c9:bc:6b:2d:48:e9:a9:d3:79:
         4e:93:82:df:62:b8:e9:c8:69:85:5e:a5:d4:b1:d8:cc:17:0a:
         44:5d:1d:ba:f0:0c:b6:2a:a1:d5:78:57:cb:90:7f:b3:95:9a:
         7e:e5:6a:55:c4:a0:ae:97:4b:ac:a7:58:d0:74:c1:b8:a6:d5:
         e2:24:66:3c:85:91:ac:a2:10:19:79:d0:38:1f:e3:f9:d4:bb:
         17:88:55:7f:35:1c:ab:fe:32:ff:db:45:a5:4d:cd:d0:89:16:
         f7:b9:cc:06:0f:af:5d:22:dd:9e:55:a4:ab:90:e1:b2:83:87:
         d5:e5:c8:51:c4:c4:9a:86:ee:54:07:7c:e4:de:1c:6a:1e:fe:
         c4:84:1f:b8:ca:ba:d6:e9:c6:53:49:08:2a:8b:e4:64:f6:34:
         2d:2c:61:e6:c4:d5:d9:8b:9b:5a:0b:7a:1f:99:13:44:20:03:
         c3:d1:7e:ce:51:ef:c1:d4:fc:fe:db:65:32:f2:bf:4a:10:05:
         2c:74:d3:d7:4a:b0:15:ce:42:82:1d:37:52:7f:1a:80:05:0f:
         b7:f3:50:15:e5:00:2e:4b:88:7e:3c:4a:79:fc:3f:34:e0:25:
         96:9b:a0:4d:90:81:5b:24:df:c6:8e:84:44:bb:6f:e8:10:44:
         a4:99:14:38:75:1a:41:53:eb:46:a1:62:76:c7:08:c3:ff:12:
         28:4d:ee:90:79:66:fd:c5:93:ce:f4:4f:51:0a:97:a5:d9:87:
         26:eb:0a:5a:b3:e0:11:0c:a2:1c:e0:bf:7d:8f:d9:15:bc:9c:
         1a:6b:dd:7c:1b:17:29:0a
-----BEGIN CERTIFICATE-----
MIIFITCCAwmgAwIBAgIFIBkBGQEwDQYJKoZIhvcNAQELBQAwbzELMAkGA1UEBhMC
SlAxDjAMBgNVBAgMBUVoaW1lMR4wHAYDVQQKDBVUYWthc2hpIFNBU0FLSSBUaGlu
Z3MxETAPBgNVBAoMCFNTSCBrZXlzMR0wGwYDVQQDDBR0YWthc2hpMzE2QGdtYWls
LmNvbTAgFw0xODAxMTkxMjU1NDRaGA8yMTE3MTIyNjEyNTU0NFowgbUxCzAJBgNV
BAYTAkpQMQ4wDAYDVQQIDAVFaGltZTEeMBwGA1UECgwVVGFrYXNoaSBTQVNBS0kg
VGhpbmdzMREwDwYDVQQKDAhTU0gga2V5czERMA8GA1UECwwIc2FzYWtpNjQxGjAY
BgNVBAsMEVVidW50dSBvbiBXaW5kb3dzMQ8wDQYDVQQDDAZzYXNha2kxIzAhBgkq
hkiG9w0BCQEWFHRha2FzaGkzMTZAZ21haWwuY29tMIIBIjANBgkqhkiG9w0BAQEF
AAOCAQ8AMIIBCgKCAQEA0sl7qd2e5YTIcWDLs8cEuo9w/Pm9UC74ytxYlCJHKTJv
DQz7FRfZuDeFQ/0ZFuvfnbP+FPDudWfs87jIvCFYq/oixgYyPkdeQEpmryZHY17c
tw/npnx57Jx89xAKmmuuixHdeqhcpD0Th5329Btr5rYiYV5tDX9HBjWIy4CzrZ4V
g44l3mIMbCWq9xlq3FAkMlCWX2UbZEQZ+fM/VrGZZrWI6I1AhmYTCBfTVvJ6y1kv
toj637fxBG83iRf1w0g7ENbUSko34uR8B+3DCbU5qoBHKjH14ORt6WJeqJB9KzsJ
z9nh8mmyxrMj3QCCpPEjEhO9EFNuAvpGunVwck2TkQIDAQABo3sweTAJBgNVHRME
AjAAMCwGCWCGSAGG+EIBDQQfFh1PcGVuU1NMIEdlbmVyYXRlZCBDZXJ0aWZpY2F0
ZTAdBgNVHQ4EFgQUaXZAwzspaQ24LBExtRgGrDz6a9QwHwYDVR0jBBgwFoAUuQ5R
j+GbKO6xj3auCICYuFeT49AwDQYJKoZIhvcNAQELBQADggIBAGFPHYYYkdA0sIDA
8ZZZWhJBM1ZfKP+v4be5YW6j/ccgfJic002qZWbdZLJmRPnl9QKWMaP+WiDZ5JyV
v5khzEUx1mQoUw3LRUF/E5Ar3vYZIqk2OSIsT8eRKYAz5jBNAFnJIEhXvGyrvlSp
jnIuu6Gzg08adVG/8Tjn15gwzxheE4sCsOSz8UnTn1m8MUe/z6pfQZhY4d6pUTR7
SpBK0usHp3seWyWr7z3dAlE+nzp2KZrr+bgZolqE5MVYmcXZC1lDobyBwUoRfjN9
Y7SMFMm8ay1I6anTeU6Tgt9iuOnIaYVepdSx2MwXCkRdHbrwDLYqodV4V8uQf7OV
mn7lalXEoK6XS6ynWNB0wbim1eIkZjyFkayiEBl50Dgf4/nUuxeIVX81HKv+Mv/b
RaVNzdCJFve5zAYPr10i3Z5VpKuQ4bKDh9XlyFHExJqG7lQHfOTeHGoe/sSEH7jK
utbpxlNJCCqL5GT2NC0sYebE1dmLm1oLeh+ZE0QgA8PRfs5R78HU/P7bZTLyv0oQ
BSx009dKsBXOQoIdN1J/GoAFD7fzUBXlAC5LiH48Snn8PzTgJZaboE2QgVsk38aO
hES7b+gQRKSZFDh1GkFT60ahYnbHCMP/EihN7pB5Zv3Fk870T1EKl6XZhybrClqz
4BEMohzgv32P2RW8nBpr3XwbFykK
-----END CERTIFICATE-----
