Certificate:
    Data:
        Version: 3 (0x2)
        Serial Number: 137858455810 (0x2019011902)
    Signature Algorithm: sha256WithRSAEncryption
        Issuer: C=JP, ST=Ehime, O=Takashi SASAKI Things, O=SSH keys, CN=takashi316@gmail.com
        Validity
            Not Before: Jan 20 02:03:49 2018 GMT
            Not After : Dec 27 02:03:49 2117 GMT
        Subject: C=JP, ST=Ehime, O=Takashi SASAKI Things, O=SSH keys, OU=SurfacePro4, OU=Ubuntu on Windows, CN=takashi/emailAddress=takashi316@gmail.com
        Subject Public Key Info:
            Public Key Algorithm: rsaEncryption
                Public-Key: (2048 bit)
                Modulus:
                    00:bb:d2:97:1b:25:6d:43:1e:a4:ec:81:9a:a7:e5:
                    bf:2e:51:f9:66:d3:a9:19:02:c3:20:e4:4c:1b:e0:
                    55:82:f2:1c:8a:39:f6:bd:b4:1a:9e:78:df:24:a5:
                    4f:42:2f:fa:9c:3e:e7:76:49:3b:30:e4:12:09:5f:
                    7b:db:e3:81:ac:cc:28:d0:b5:f8:ef:de:f0:ca:b4:
                    49:12:b1:e2:f5:75:b1:e1:eb:e4:ff:8c:12:23:ed:
                    a4:50:85:7a:76:1f:77:2b:e7:b5:07:b2:eb:44:9c:
                    f5:2e:02:e6:ee:22:c7:e7:2e:38:f3:30:68:3c:98:
                    53:3c:28:81:78:95:b8:cf:b4:f8:19:2b:46:b9:73:
                    ed:3b:7b:8d:62:c8:dc:8e:06:ac:9b:b9:73:29:1c:
                    4f:91:d1:8b:3a:1a:e1:c1:db:11:cb:70:d8:ec:e7:
                    ec:75:f2:85:7c:9a:ec:92:3d:b2:5e:40:ba:7d:0e:
                    67:e0:65:5a:d5:94:d8:13:95:a2:d4:26:b5:53:b8:
                    01:d4:3a:bf:f8:a7:b4:35:db:af:c8:94:ea:f1:b7:
                    e0:aa:9a:67:3e:53:cf:b2:8c:89:a5:2a:26:03:7e:
                    0c:23:8b:24:8c:b0:3f:e6:c2:53:bc:2b:2d:64:9d:
                    1f:d2:c4:9e:6d:94:18:ce:9d:aa:99:26:a1:ac:21:
                    8c:69
                Exponent: 65537 (0x10001)
        X509v3 extensions:
            X509v3 Basic Constraints: 
                CA:FALSE
            Netscape Comment: 
                OpenSSL Generated Certificate
            X509v3 Subject Key Identifier: 
                FF:EE:43:F9:EF:2C:59:C6:15:E5:24:06:E2:29:8B:25:DC:42:ED:CC
            X509v3 Authority Key Identifier: 
                keyid:B9:0E:51:8F:E1:9B:28:EE:B1:8F:76:AE:08:80:98:B8:57:93:E3:D0

    Signature Algorithm: sha256WithRSAEncryption
         90:3c:ec:4a:be:8e:da:fe:f2:c3:2e:94:28:47:2d:ae:8f:7b:
         e1:40:32:9e:27:94:a7:f8:b2:1b:a8:17:61:63:fd:23:e3:db:
         52:67:d4:e9:65:2f:0c:bf:81:fb:8c:94:e3:17:b2:1b:dd:c2:
         30:a2:01:97:e7:cf:fb:2d:04:d1:29:88:e9:bc:6e:05:33:2c:
         13:ea:b1:46:8e:d3:eb:83:4f:70:7d:15:6f:4d:3d:ea:3e:d4:
         64:2b:21:fb:11:3e:5d:59:a7:64:86:21:59:82:26:15:8f:1e:
         a2:bf:04:26:6c:ff:7e:0c:06:02:c3:04:20:06:40:e6:19:af:
         25:f7:6e:ee:07:23:d9:08:3b:e0:99:17:8a:21:33:bb:5e:8f:
         36:60:86:24:3b:e0:84:80:25:03:cf:0a:b0:7c:6c:4b:cf:0e:
         0a:58:bb:31:b1:19:99:cd:14:aa:59:c9:1f:8d:b8:04:36:21:
         92:1e:4f:36:62:30:dc:bb:07:52:59:97:88:b7:0d:38:5b:f1:
         1e:20:b7:b5:1e:21:20:85:9c:e0:f3:9f:c7:50:a3:60:44:89:
         db:50:8d:72:9f:69:48:6e:23:48:a7:68:09:7f:ce:3d:9e:51:
         8a:ed:97:b2:25:29:e7:c8:b6:21:53:77:c6:a8:88:57:b3:d4:
         5e:4b:7c:ab:4a:5c:30:e9:17:b4:fe:93:67:55:d6:bf:a9:02:
         a9:b9:a0:bd:88:3c:6e:93:76:f9:c9:73:d1:2e:68:83:d5:85:
         bf:b6:3c:7e:5f:39:f5:7b:fd:45:e7:9e:e0:66:34:95:83:6b:
         2a:ba:c8:c3:4c:4f:8f:1a:e7:53:4e:b1:a1:34:27:07:a7:8e:
         d7:57:2f:d9:b9:bb:d0:4c:02:a0:c5:50:87:a8:6f:93:e6:79:
         93:8b:15:f7:94:59:e1:ed:69:ee:93:c8:3e:41:50:42:f5:40:
         03:7d:ba:72:ad:d5:a9:b0:9c:11:2d:0f:5b:01:1f:fc:86:16:
         8d:01:49:d9:b4:1f:6e:ef:01:e1:e7:b4:01:38:3f:f7:3a:52:
         7c:a9:58:1c:4b:79:64:c2:f2:cf:fc:4a:82:65:64:9b:dc:ad:
         67:66:bc:11:0c:36:f0:c4:76:ac:72:d9:c9:b0:c0:90:ee:7f:
         7e:4b:bf:10:fa:0b:5b:a7:22:1d:2c:50:03:8b:cb:1c:d4:54:
         08:14:00:50:43:7c:35:d7:ec:11:f0:8f:8f:19:8d:be:21:c7:
         5e:18:d5:b1:3e:6f:aa:a6:01:42:bb:d8:cd:7a:26:78:30:b7:
         db:c7:38:91:00:7a:a5:80:66:ed:10:18:84:2e:48:2e:38:79:
         1e:c7:10:c3:08:6d:d4:1d
-----BEGIN CERTIFICATE-----
MIIFJTCCAw2gAwIBAgIFIBkBGQIwDQYJKoZIhvcNAQELBQAwbzELMAkGA1UEBhMC
SlAxDjAMBgNVBAgMBUVoaW1lMR4wHAYDVQQKDBVUYWthc2hpIFNBU0FLSSBUaGlu
Z3MxETAPBgNVBAoMCFNTSCBrZXlzMR0wGwYDVQQDDBR0YWthc2hpMzE2QGdtYWls
LmNvbTAgFw0xODAxMjAwMjAzNDlaGA8yMTE3MTIyNzAyMDM0OVowgbkxCzAJBgNV
BAYTAkpQMQ4wDAYDVQQIDAVFaGltZTEeMBwGA1UECgwVVGFrYXNoaSBTQVNBS0kg
VGhpbmdzMREwDwYDVQQKDAhTU0gga2V5czEUMBIGA1UECwwLU3VyZmFjZVBybzQx
GjAYBgNVBAsMEVVidW50dSBvbiBXaW5kb3dzMRAwDgYDVQQDDAd0YWthc2hpMSMw
IQYJKoZIhvcNAQkBFhR0YWthc2hpMzE2QGdtYWlsLmNvbTCCASIwDQYJKoZIhvcN
AQEBBQADggEPADCCAQoCggEBALvSlxslbUMepOyBmqflvy5R+WbTqRkCwyDkTBvg
VYLyHIo59r20Gp543ySlT0Iv+pw+53ZJOzDkEglfe9vjgazMKNC1+O/e8Mq0SRKx
4vV1seHr5P+MEiPtpFCFenYfdyvntQey60Sc9S4C5u4ix+cuOPMwaDyYUzwogXiV
uM+0+BkrRrlz7Tt7jWLI3I4GrJu5cykcT5HRizoa4cHbEctw2Ozn7HXyhXya7JI9
sl5Aun0OZ+BlWtWU2BOVotQmtVO4AdQ6v/intDXbr8iU6vG34KqaZz5Tz7KMiaUq
JgN+DCOLJIywP+bCU7wrLWSdH9LEnm2UGM6dqpkmoawhjGkCAwEAAaN7MHkwCQYD
VR0TBAIwADAsBglghkgBhvhCAQ0EHxYdT3BlblNTTCBHZW5lcmF0ZWQgQ2VydGlm
aWNhdGUwHQYDVR0OBBYEFP/uQ/nvLFnGFeUkBuIpiyXcQu3MMB8GA1UdIwQYMBaA
FLkOUY/hmyjusY92rgiAmLhXk+PQMA0GCSqGSIb3DQEBCwUAA4ICAQCQPOxKvo7a
/vLDLpQoRy2uj3vhQDKeJ5Sn+LIbqBdhY/0j49tSZ9TpZS8Mv4H7jJTjF7Ib3cIw
ogGX58/7LQTRKYjpvG4FMywT6rFGjtPrg09wfRVvTT3qPtRkKyH7ET5dWadkhiFZ
giYVjx6ivwQmbP9+DAYCwwQgBkDmGa8l927uByPZCDvgmReKITO7Xo82YIYkO+CE
gCUDzwqwfGxLzw4KWLsxsRmZzRSqWckfjbgENiGSHk82YjDcuwdSWZeItw04W/Ee
ILe1HiEghZzg85/HUKNgRInbUI1yn2lIbiNIp2gJf849nlGK7ZeyJSnnyLYhU3fG
qIhXs9ReS3yrSlww6Re0/pNnVda/qQKpuaC9iDxuk3b5yXPRLmiD1YW/tjx+Xzn1
e/1F557gZjSVg2squsjDTE+PGudTTrGhNCcHp47XVy/ZubvQTAKgxVCHqG+T5nmT
ixX3lFnh7Wnuk8g+QVBC9UADfbpyrdWpsJwRLQ9bAR/8hhaNAUnZtB9u7wHh57QB
OD/3OlJ8qVgcS3lkwvLP/EqCZWSb3K1nZrwRDDbwxHasctnJsMCQ7n9+S78Q+gtb
pyIdLFADi8sc1FQIFABQQ3w11+wR8I+PGY2+IcdeGNWxPm+qpgFCu9jNeiZ4MLfb
xziRAHqlgGbtEBiELkguOHkexxDDCG3UHQ==
-----END CERTIFICATE-----
